target datalayout = "e-m:e-p270:32:32-p271:32:32-p272:64:64-i64:64-i128:128-f80:128-n8:16:32:64-S128"
target triple = "x86_64-pc-linux-gnu"

; Function Attrs: mustprogress nounwind uwtable
define internal void @_ZN4ncnnL13linear_coeffsEiiPiPfi(i32 noundef %0, i32 noundef %1, ptr noundef %2, ptr noundef %3, i32 noundef %4) #3 {
  %6 = alloca i32, align 4
  %7 = alloca i32, align 4
  %8 = alloca ptr, align 8
  %9 = alloca ptr, align 8
  %10 = alloca i32, align 4
  %11 = alloca double, align 8
  %12 = alloca i32, align 4
  %13 = alloca float, align 4
  %14 = alloca i32, align 4
  store i32 %0, ptr %6, align 4
  store i32 %1, ptr %7, align 4
  store ptr %2, ptr %8, align 8
  store ptr %3, ptr %9, align 8
  store i32 %4, ptr %10, align 4
  %15 = load i32, ptr %6, align 4
  %16 = sitofp i32 %15 to double
  %17 = load i32, ptr %7, align 4
  %18 = sitofp i32 %17 to double
  %19 = fdiv fast double %16, %18
  store double %19, ptr %11, align 8
  %20 = load i32, ptr %10, align 4
  %21 = icmp ne i32 %20, 0
  br i1 %21, label %22, label %30

22:                                               ; preds = %5
  %23 = load i32, ptr %6, align 4
  %24 = sub nsw i32 %23, 1
  %25 = sitofp i32 %24 to double
  %26 = load i32, ptr %7, align 4
  %27 = sub nsw i32 %26, 1
  %28 = sitofp i32 %27 to double
  %29 = fdiv fast double %25, %28
  store double %29, ptr %11, align 8
  br label %30

30:                                               ; preds = %22, %5
  store i32 0, ptr %12, align 4
  br label %31

31:                                               ; preds = %90, %30
  %32 = load i32, ptr %12, align 4
  %33 = load i32, ptr %7, align 4
  %34 = icmp slt i32 %32, %33
  br i1 %34, label %35, label %93

35:                                               ; preds = %31
  %36 = load i32, ptr %12, align 4
  %37 = sitofp i32 %36 to double
  %38 = fadd fast double %37, 5.000000e-01
  %39 = load double, ptr %11, align 8
  %40 = fmul fast double %38, %39
  %41 = fsub fast double %40, 5.000000e-01
  %42 = fptrunc double %41 to float
  store float %42, ptr %13, align 4
  %43 = load i32, ptr %10, align 4
  %44 = icmp ne i32 %43, 0
  br i1 %44, label %45, label %51

45:                                               ; preds = %35
  %46 = load i32, ptr %12, align 4
  %47 = sitofp i32 %46 to double
  %48 = load double, ptr %11, align 8
  %49 = fmul fast double %47, %48
  %50 = fptrunc double %49 to float
  store float %50, ptr %13, align 4
  br label %51

51:                                               ; preds = %45, %35
  %52 = load float, ptr %13, align 4
  %53 = call fast float @llvm.floor.f32(float %52)
  %54 = fptosi float %53 to i32
  store i32 %54, ptr %14, align 4
  %55 = load i32, ptr %14, align 4
  %56 = sitofp i32 %55 to float
  %57 = load float, ptr %13, align 4
  %58 = fsub fast float %57, %56
  store float %58, ptr %13, align 4
  %59 = load i32, ptr %14, align 4
  %60 = icmp slt i32 %59, 0
  br i1 %60, label %61, label %62

61:                                               ; preds = %51
  store i32 0, ptr %14, align 4
  store float 0.000000e+00, ptr %13, align 4
  br label %62

62:                                               ; preds = %61, %51
  %63 = load i32, ptr %14, align 4
  %64 = load i32, ptr %6, align 4
  %65 = sub nsw i32 %64, 1
  %66 = icmp sge i32 %63, %65
  br i1 %66, label %67, label %70

67:                                               ; preds = %62
  %68 = load i32, ptr %6, align 4
  %69 = sub nsw i32 %68, 2
  store i32 %69, ptr %14, align 4
  store float 1.000000e+00, ptr %13, align 4
  br label %70

70:                                               ; preds = %67, %62
  %71 = load i32, ptr %14, align 4
  %72 = load ptr, ptr %8, align 8
  %73 = load i32, ptr %12, align 4
  %74 = sext i32 %73 to i64
  %75 = getelementptr inbounds i32, ptr %72, i64 %74
  store i32 %71, ptr %75, align 4
  %76 = load float, ptr %13, align 4
  %77 = fsub fast float 1.000000e+00, %76
  %78 = load ptr, ptr %9, align 8
  %79 = load i32, ptr %12, align 4
  %80 = mul nsw i32 %79, 2
  %81 = sext i32 %80 to i64
  %82 = getelementptr inbounds float, ptr %78, i64 %81
  store float %77, ptr %82, align 4
  %83 = load float, ptr %13, align 4
  %84 = load ptr, ptr %9, align 8
  %85 = load i32, ptr %12, align 4
  %86 = mul nsw i32 %85, 2
  %87 = add nsw i32 %86, 1
  %88 = sext i32 %87 to i64
  %89 = getelementptr inbounds float, ptr %84, i64 %88
  store float %83, ptr %89, align 4
  br label %90

90:                                               ; preds = %70
  %91 = load i32, ptr %12, align 4
  %92 = add nsw i32 %91, 1
  store i32 %92, ptr %12, align 4
  br label %31, !llvm.loop !73

93:                                               ; preds = %31
  ret void
}